; Function Attrs: nounwind uwtable
define hidden void @png_set_rgb_to_gray_fixed(ptr noalias noundef %0, i32 noundef %1, i32 noundef %2, i32 noundef %3) local_unnamed_addr #0 {
  %.not.i = icmp eq ptr %0, null
  br i1 %.not.i, label %png_rtran_ok.exit.thread, label %5

5:                                                ; preds = %4
  %6 = getelementptr inbounds i8, ptr %0, i64 296
  %7 = load i32, ptr %6, align 8, !alias.scope !90
  %8 = and i32 %7, 64
  %.not8.i = icmp eq i32 %8, 0
  br i1 %.not8.i, label %10, label %9

9:                                                ; preds = %5
  tail call void @png_app_error(ptr noundef nonnull %0, ptr noundef nonnull @.str.19) #11
  br label %png_rtran_ok.exit.thread

10:                                               ; preds = %5
  %11 = getelementptr inbounds i8, ptr %0, i64 292
  %12 = load i32, ptr %11, align 4, !alias.scope !90
  %13 = and i32 %12, 1
  %14 = icmp eq i32 %13, 0
  br i1 %14, label %15, label %16

15:                                               ; preds = %10
  tail call void @png_app_error(ptr noundef nonnull %0, ptr noundef nonnull @.str.20) #11
  br label %png_rtran_ok.exit.thread

16:                                               ; preds = %10
  %17 = or i32 %7, 16384
  store i32 %17, ptr %6, align 8, !alias.scope !90
  %switch.tableidx = add i32 %1, -1
  %18 = icmp ult i32 %switch.tableidx, 3
  br i1 %18, label %switch.lookup, label %19

19:                                               ; preds = %16
  tail call void @png_error(ptr noundef nonnull %0, ptr noundef nonnull @.str.8) #12
  unreachable

switch.lookup:                                    ; preds = %16
  %20 = shl nuw nsw i32 %switch.tableidx, 21
  %switch.offset = sub nuw nsw i32 6291456, %20
  %21 = getelementptr inbounds i8, ptr %0, i64 300
  %22 = load i32, ptr %21, align 4
  %23 = or i32 %22, %switch.offset
  store i32 %23, ptr %21, align 4
  %24 = getelementptr inbounds i8, ptr %0, i64 519
  %25 = load i8, ptr %24, align 1
  %26 = icmp eq i8 %25, 3
  br i1 %26, label %27, label %30

27:                                               ; preds = %switch.lookup
  %28 = getelementptr inbounds i8, ptr %0, i64 300
  %29 = or i32 %23, 4096
  store i32 %29, ptr %28, align 4
  br label %30

30:                                               ; preds = %27, %switch.lookup
  %31 = or i32 %3, %2
  %or.cond = icmp sgt i32 %31, -1
  %32 = add nuw nsw i32 %3, %2
  %33 = icmp slt i32 %32, 100001
  %or.cond30 = select i1 %or.cond, i1 %33, i1 false
  br i1 %or.cond30, label %34, label %44

34:                                               ; preds = %30
  %35 = shl i32 %2, 15
  %36 = udiv i32 %35, 100000
  %37 = trunc nuw i32 %36 to i16
  %38 = shl i32 %3, 15
  %39 = udiv i32 %38, 100000
  %40 = trunc nuw i32 %39 to i16
  %41 = getelementptr inbounds i8, ptr %0, i64 866
  store i16 %37, ptr %41, align 2
  %42 = getelementptr inbounds i8, ptr %0, i64 868
  store i16 %40, ptr %42, align 4
  %43 = getelementptr inbounds i8, ptr %0, i64 865
  store i8 1, ptr %43, align 1
  br label %png_rtran_ok.exit.thread

44:                                               ; preds = %30
  br i1 %or.cond, label %45, label %46

45:                                               ; preds = %44
  tail call void @png_app_warning(ptr noundef nonnull %0, ptr noundef nonnull @.str.9) #11
  br label %46

46:                                               ; preds = %45, %44
  %47 = getelementptr inbounds i8, ptr %0, i64 866
  %48 = load i16, ptr %47, align 2
  %49 = icmp eq i16 %48, 0
  br i1 %49, label %50, label %png_rtran_ok.exit.thread

50:                                               ; preds = %46
  %51 = getelementptr inbounds i8, ptr %0, i64 868
  %52 = load i16, ptr %51, align 4
  %53 = icmp eq i16 %52, 0
  br i1 %53, label %54, label %png_rtran_ok.exit.thread

54:                                               ; preds = %50
  store i16 6968, ptr %47, align 2
  store i16 23434, ptr %51, align 4
  br label %png_rtran_ok.exit.thread

png_rtran_ok.exit.thread:                         ; preds = %4, %15, %9, %46, %50, %54, %34
  ret void
}